target datalayout = "e-m:e-p270:32:32-p271:32:32-p272:64:64-i64:64-i128:128-f80:128-n8:16:32:64-S128"
target triple = "x86_64-pc-linux-gnu"

%struct.Gia_IsoMan_t_ = type { ptr, i32, i32, i32, i32, ptr, ptr, ptr, ptr, ptr, ptr, ptr, i64, i64, i64, i64, i64, i64 }

@.str.5 = private unnamed_addr constant [2 x i8] c"\0A\00", align 1
@.str.6 = private unnamed_addr constant [13 x i8] c"Iter %4d :  \00", align 1
@.str.7 = private unnamed_addr constant [16 x i8] c"Entries =%8d.  \00", align 1
@.str.8 = private unnamed_addr constant [16 x i8] c"Uniques =%8d.  \00", align 1
@.str.9 = private unnamed_addr constant [16 x i8] c"Singles =%8d.  \00", align 1
@.str.10 = private unnamed_addr constant [10 x i8] c"%9.2f sec\00", align 1
@stdout = external global ptr, align 8

; Function Attrs: nounwind uwtable
define void @Gia_IsoPrint(ptr noundef %0, i32 noundef %1, i64 noundef %2) #0 {
  %4 = alloca ptr, align 8
  %5 = alloca i32, align 4
  %6 = alloca i64, align 8
  store ptr %0, ptr %4, align 8, !tbaa !8
  store i32 %1, ptr %5, align 4, !tbaa !42
  store i64 %2, ptr %6, align 8, !tbaa !55
  %7 = load i32, ptr %5, align 4, !tbaa !42
  %8 = call i32 (ptr, ...) @printf(ptr noundef @.str.6, i32 noundef %7)
  %9 = load ptr, ptr %4, align 8, !tbaa !8
  %10 = getelementptr inbounds nuw %struct.Gia_IsoMan_t_, ptr %9, i32 0, i32 4
  %11 = load i32, ptr %10, align 4, !tbaa !19
  %12 = call i32 (ptr, ...) @printf(ptr noundef @.str.7, i32 noundef %11)
  %13 = load ptr, ptr %4, align 8, !tbaa !8
  %14 = getelementptr inbounds nuw %struct.Gia_IsoMan_t_, ptr %13, i32 0, i32 2
  %15 = load i32, ptr %14, align 4, !tbaa !18
  %16 = call i32 (ptr, ...) @printf(ptr noundef @.str.8, i32 noundef %15)
  %17 = load ptr, ptr %4, align 8, !tbaa !8
  %18 = getelementptr inbounds nuw %struct.Gia_IsoMan_t_, ptr %17, i32 0, i32 3
  %19 = load i32, ptr %18, align 8, !tbaa !56
  %20 = call i32 (ptr, ...) @printf(ptr noundef @.str.9, i32 noundef %19)
  %21 = load i64, ptr %6, align 8, !tbaa !55
  %22 = sitofp i64 %21 to float
  %23 = fdiv float %22, 1.000000e+06
  %24 = fpext float %23 to double
  %25 = call i32 (ptr, ...) @printf(ptr noundef @.str.10, double noundef %24)
  %26 = call i32 (ptr, ...) @printf(ptr noundef @.str.5)
  %27 = load ptr, ptr @stdout, align 8, !tbaa !57
  %28 = call i32 @fflush(ptr noundef %27)
  ret void
}