; Function Attrs: nofree nounwind uwtable
define void @Gia_IsoPrint(ptr noundef readonly captures(none) %0, i32 noundef %1, i64 noundef %2) local_unnamed_addr #6 {
  %4 = tail call i32 (ptr, ...) @printf(ptr noundef nonnull dereferenceable(1) @.str.6, i32 noundef %1)
  %5 = getelementptr inbounds nuw i8, ptr %0, i64 20
  %6 = load i32, ptr %5, align 4, !tbaa !33
  %7 = tail call i32 (ptr, ...) @printf(ptr noundef nonnull dereferenceable(1) @.str.7, i32 noundef %6)
  %8 = getelementptr inbounds nuw i8, ptr %0, i64 12
  %9 = load i32, ptr %8, align 4, !tbaa !32
  %10 = tail call i32 (ptr, ...) @printf(ptr noundef nonnull dereferenceable(1) @.str.8, i32 noundef %9)
  %11 = getelementptr inbounds nuw i8, ptr %0, i64 16
  %12 = load i32, ptr %11, align 8, !tbaa !49
  %13 = tail call i32 (ptr, ...) @printf(ptr noundef nonnull dereferenceable(1) @.str.9, i32 noundef %12)
  %14 = sitofp i64 %2 to float
  %15 = fdiv float %14, 1.000000e+06
  %16 = fpext float %15 to double
  %17 = tail call i32 (ptr, ...) @printf(ptr noundef nonnull dereferenceable(1) @.str.10, double noundef %16)
  %putchar = tail call i32 @putchar(i32 10)
  %18 = load ptr, ptr @stdout, align 8, !tbaa !50
  %19 = tail call i32 @fflush(ptr noundef %18)
  ret void
}